; Function Attrs: mustprogress nofree norecurse nosync nounwind willreturn memory(read, inaccessiblemem: none) uwtable
define hidden i32 @_ZNK3sat3big4nextENS_7literalES1_(ptr nocapture noundef nonnull readonly align 8 dereferenceable(80) %this, i32 %u.coerce, i32 %v.coerce) local_unnamed_addr #8 align 2 {
entry:
  %retval.sroa.0.0.copyload.b = load i1, ptr @_ZN3satL12null_literalE.0, align 4
  %retval.sroa.0.0.copyload = select i1 %retval.sroa.0.0.copyload.b, i32 -2, i32 0
  %m_right = getelementptr inbounds i8, ptr %this, i64 40
  %0 = load ptr, ptr %m_right, align 8
  %idxprom.i = zext i32 %u.coerce to i64
  %arrayidx.i = getelementptr inbounds i32, ptr %0, i64 %idxprom.i
  %1 = load i32, ptr %arrayidx.i, align 4
  %m_dag = getelementptr inbounds i8, ptr %this, i64 16
  %2 = load ptr, ptr %m_dag, align 8
  %arrayidx.i6 = getelementptr inbounds %class.svector.3, ptr %2, i64 %idxprom.i
  %3 = load ptr, ptr %arrayidx.i6, align 8
  %cmp.i.i = icmp eq ptr %3, null
  br i1 %cmp.i.i, label %for.end, label %_ZNK6vectorIN3sat7literalELb0EjE3endEv.exit

_ZNK6vectorIN3sat7literalELb0EjE3endEv.exit:      ; preds = %entry
  %arrayidx.i.i = getelementptr inbounds i8, ptr %3, i64 -4
  %4 = load i32, ptr %arrayidx.i.i, align 4
  %5 = zext i32 %4 to i64
  %add.ptr.i = getelementptr inbounds %"class.sat::literal", ptr %3, i64 %5
  %cmp.not32 = icmp eq i32 %4, 0
  br i1 %cmp.not32, label %for.end, label %for.body.lr.ph

for.body.lr.ph:                                   ; preds = %_ZNK6vectorIN3sat7literalELb0EjE3endEv.exit
  %m_left.i = getelementptr inbounds i8, ptr %this, i64 32
  %6 = load ptr, ptr %m_left.i, align 8
  %arrayidx.i.i7 = getelementptr inbounds i32, ptr %6, i64 %idxprom.i
  %7 = load i32, ptr %arrayidx.i.i7, align 4
  %idxprom.i1.i12 = zext i32 %v.coerce to i64
  %arrayidx.i2.i13 = getelementptr inbounds i32, ptr %6, i64 %idxprom.i1.i12
  %arrayidx.i4.i17 = getelementptr inbounds i32, ptr %0, i64 %idxprom.i1.i12
  br label %for.body

for.body:                                         ; preds = %for.body.lr.ph, %for.inc
  %retval.sroa.0.035 = phi i32 [ %retval.sroa.0.0.copyload, %for.body.lr.ph ], [ %retval.sroa.0.1, %for.inc ]
  %left.034 = phi i32 [ %1, %for.body.lr.ph ], [ %left.1, %for.inc ]
  %__begin1.033 = phi ptr [ %3, %for.body.lr.ph ], [ %incdec.ptr, %for.inc ]
  %8 = load i32, ptr %__begin1.033, align 4
  %idxprom.i1.i = zext i32 %8 to i64
  %arrayidx.i2.i = getelementptr inbounds i32, ptr %6, i64 %idxprom.i1.i
  %9 = load i32, ptr %arrayidx.i2.i, align 4
  %cmp.i = icmp slt i32 %7, %9
  br i1 %cmp.i, label %_ZNK3sat3big7reachesENS_7literalES1_.exit, label %for.inc

_ZNK3sat3big7reachesENS_7literalES1_.exit:        ; preds = %for.body
  %arrayidx.i4.i = getelementptr inbounds i32, ptr %0, i64 %idxprom.i1.i
  %10 = load i32, ptr %arrayidx.i4.i, align 4
  %cmp12.i = icmp slt i32 %10, %1
  br i1 %cmp12.i, label %land.lhs.true, label %for.inc

land.lhs.true:                                    ; preds = %_ZNK3sat3big7reachesENS_7literalES1_.exit
  %cmp.i8 = icmp eq i32 %8, %v.coerce
  br i1 %cmp.i8, label %land.lhs.true18, label %lor.lhs.false

lor.lhs.false:                                    ; preds = %land.lhs.true
  %11 = load i32, ptr %arrayidx.i2.i13, align 4
  %cmp.i14 = icmp slt i32 %9, %11
  br i1 %cmp.i14, label %_ZNK3sat3big7reachesENS_7literalES1_.exit20, label %for.inc

_ZNK3sat3big7reachesENS_7literalES1_.exit20:      ; preds = %lor.lhs.false
  %12 = load i32, ptr %arrayidx.i4.i17, align 4
  %cmp12.i19 = icmp slt i32 %12, %10
  %cmp21 = icmp slt i32 %9, %left.034
  %or.cond = select i1 %cmp12.i19, i1 %cmp21, i1 false
  br i1 %or.cond, label %if.then, label %for.inc

land.lhs.true18:                                  ; preds = %land.lhs.true
  %cmp21.old = icmp slt i32 %9, %left.034
  br i1 %cmp21.old, label %if.then, label %for.inc

if.then:                                          ; preds = %_ZNK3sat3big7reachesENS_7literalES1_.exit20, %land.lhs.true18
  br label %for.inc

for.inc:                                          ; preds = %lor.lhs.false, %for.body, %_ZNK3sat3big7reachesENS_7literalES1_.exit, %_ZNK3sat3big7reachesENS_7literalES1_.exit20, %land.lhs.true18, %if.then
  %left.1 = phi i32 [ %9, %if.then ], [ %left.034, %land.lhs.true18 ], [ %left.034, %_ZNK3sat3big7reachesENS_7literalES1_.exit20 ], [ %left.034, %_ZNK3sat3big7reachesENS_7literalES1_.exit ], [ %left.034, %for.body ], [ %left.034, %lor.lhs.false ]
  %retval.sroa.0.1 = phi i32 [ %8, %if.then ], [ %retval.sroa.0.035, %land.lhs.true18 ], [ %retval.sroa.0.035, %_ZNK3sat3big7reachesENS_7literalES1_.exit20 ], [ %retval.sroa.0.035, %_ZNK3sat3big7reachesENS_7literalES1_.exit ], [ %retval.sroa.0.035, %for.body ], [ %retval.sroa.0.035, %lor.lhs.false ]
  %incdec.ptr = getelementptr inbounds i8, ptr %__begin1.033, i64 4
  %cmp.not = icmp eq ptr %incdec.ptr, %add.ptr.i
  br i1 %cmp.not, label %for.end, label %for.body

for.end:                                          ; preds = %for.inc, %entry, %_ZNK6vectorIN3sat7literalELb0EjE3endEv.exit
  %retval.sroa.0.0.lcssa = phi i32 [ %retval.sroa.0.0.copyload, %_ZNK6vectorIN3sat7literalELb0EjE3endEv.exit ], [ %retval.sroa.0.0.copyload, %entry ], [ %retval.sroa.0.1, %for.inc ]
  ret i32 %retval.sroa.0.0.lcssa
}